Certificate:
    Data:
        Version: 3 (0x2)
        Serial Number: 1 (0x1)
    Signature Algorithm: sha256WithRSAEncryption
        Issuer: C=US, ST=Maryland, L=Baltimore, O=Hub Server CA, OU=Payments, CN=hubserverca/emailAddress=hubserverca@example.com
        Validity
            Not Before: Oct  8 06:03:15 2021 GMT
            Not After : Jul  4 06:03:15 2024 GMT
        Subject: CN=mojaloop-testing-toolkit
        Subject Public Key Info:
            Public Key Algorithm: rsaEncryption
                Public-Key: (4096 bit)
                Modulus:
                    00:df:59:f4:79:65:18:39:1e:0d:7b:7d:2c:9b:05:
                    72:44:9f:dd:99:f0:b5:0f:0d:36:6f:97:de:74:48:
                    7d:a2:96:58:7d:e4:8b:84:bc:9c:e2:47:d9:39:16:
                    cf:30:6b:ad:ad:dd:f0:24:74:72:31:47:b8:86:cf:
                    34:63:f4:60:15:08:32:f3:ca:bc:7e:aa:7d:60:de:
                    85:b5:4d:1e:e5:bd:44:71:97:6c:5b:cc:e6:54:ed:
                    41:15:d6:6c:2a:a9:18:1f:1a:f5:40:71:30:11:db:
                    5f:86:7d:66:aa:1c:98:41:b1:db:c5:fe:d3:73:6a:
                    f5:0b:09:11:6c:db:cf:ff:cc:94:02:b8:6d:93:36:
                    1a:72:06:4a:a4:6e:29:cd:ac:b2:51:1b:a0:db:2c:
                    0d:2f:c0:e0:fc:ac:7d:24:1d:6d:64:3a:ad:b1:51:
                    fb:39:e5:58:0e:34:e1:b5:b7:e9:4b:7e:9d:d0:ce:
                    f8:a6:12:7b:a5:61:fd:ba:88:ef:fa:67:db:d5:df:
                    6a:d6:4b:3a:61:2a:be:aa:7b:33:88:06:3b:67:62:
                    33:58:2d:59:5c:00:30:3e:9c:d9:ee:18:cd:42:47:
                    5a:af:a4:a5:89:57:1b:d4:17:70:72:c9:6a:62:19:
                    f3:79:c4:ad:66:87:83:ab:9e:68:92:4a:a3:9c:d4:
                    71:5e:ca:a3:e3:be:96:b4:1e:5b:9a:e8:d1:aa:d0:
                    37:62:a6:99:84:8a:b1:e9:33:f0:bf:a9:70:51:51:
                    23:66:cd:c8:f0:70:79:c1:34:b5:7e:c2:53:2d:39:
                    b5:72:72:0d:f1:09:97:2b:3a:ef:b6:bf:6d:17:16:
                    0e:ae:33:77:a4:26:b1:40:eb:02:55:95:3a:be:8f:
                    0b:f8:27:93:3e:e6:72:f0:55:86:ed:af:60:68:59:
                    ad:ae:2d:54:96:57:54:f9:90:08:68:07:53:77:14:
                    0c:06:11:9b:da:77:64:4d:bf:f5:b3:f6:cb:e2:7b:
                    7d:7c:37:e6:2a:4a:fd:7a:9b:22:21:65:0d:7c:69:
                    b9:59:0e:1a:e1:a7:6d:04:d8:44:72:96:2a:42:04:
                    35:e7:da:9c:3e:28:aa:5d:24:54:b2:1d:10:89:6c:
                    7a:94:45:21:3c:99:bd:95:4a:73:9a:fc:01:85:a3:
                    1e:d9:1b:f0:bf:13:3d:e5:04:dd:26:ba:18:7a:e3:
                    fb:6d:7d:82:4b:82:23:90:84:c3:5b:d6:8b:eb:58:
                    ed:3c:a2:5e:f5:13:cb:6d:71:e2:a2:b3:20:57:27:
                    16:70:b5:01:f7:69:86:8d:c0:67:73:47:b1:f4:7d:
                    cc:ce:b0:1d:d7:53:ce:d2:e5:6b:fa:b0:8a:89:ae:
                    42:e4:7f
                Exponent: 65537 (0x10001)
        X509v3 extensions:
            X509v3 Subject Key Identifier: 
                AE:F8:14:5C:F1:9A:0C:EE:DB:55:D5:AA:B5:CF:17:F0:BE:3F:61:5F
            X509v3 Authority Key Identifier: 
                keyid:0C:AD:64:FA:44:9C:E6:CD:1B:6B:D3:5B:09:F1:9F:C0:C1:8E:4C:1C

            X509v3 Basic Constraints: 
                CA:FALSE
            X509v3 Key Usage: 
                Digital Signature, Key Encipherment
            X509v3 Extended Key Usage: 
                TLS Web Server Authentication, TLS Web Client Authentication, Code Signing, E-mail Protection
            X509v3 Subject Alternative Name: 
                DNS:mojaloop-testing-toolkit, DNS:localhost, DNS:keycloak, DNS:connection-manager-api
            Netscape Comment: 
                OpenSSL Generated Certificate
    Signature Algorithm: sha256WithRSAEncryption
         60:6a:ad:50:d3:54:a7:e1:5f:82:f6:c5:b1:19:65:1f:2b:b0:
         0b:62:80:22:2f:c2:19:f7:d5:24:2b:bb:b3:ea:06:7e:be:37:
         04:cf:9e:9b:4a:2b:84:0f:a0:69:2f:dc:bd:0c:43:e9:3d:b3:
         bd:99:3c:ae:11:60:4b:6d:76:59:9a:ca:84:dc:80:0f:c4:9f:
         d7:1e:99:0e:f9:cc:5b:0d:1a:13:a3:7b:58:e7:b4:d0:11:db:
         b7:ab:6e:cd:b9:a0:f1:ff:19:40:ad:7e:1a:e4:d3:c0:63:2b:
         a2:f7:84:a0:f8:e3:66:d2:2f:a9:c0:16:a4:7d:13:78:ff:0f:
         00:05:0e:ce:60:8c:6a:bc:25:96:d2:4f:41:79:60:cc:60:9c:
         87:c1:e5:a6:4d:f6:db:e3:b9:68:f3:d2:e7:08:48:08:6c:5f:
         de:a0:84:6a:9d:2c:c1:7e:5a:1a:9b:c2:ff:cb:3f:1b:97:bb:
         96:86:06:92:38:0a:da:c8:6c:28:3f:30:e2:a0:42:b4:bb:bf:
         19:80:1a:df:33:9b:d0:1c:89:03:e2:7e:dd:ad:b9:63:95:7f:
         0a:b0:fd:f3:12:aa:de:e8:6d:ef:a5:5b:0a:fc:75:5b:3a:d1:
         6f:f3:5f:42:ef:dd:0a:f9:90:71:92:2c:0b:62:15:41:8b:91:
         1f:fa:80:7d:f0:36:54:bb:a5:94:bb:50:13:72:ce:05:fc:53:
         aa:6e:17:42:90:04:09:ab:72:03:eb:05:0a:9a:61:30:fb:54:
         09:67:8f:54:45:01:7b:34:07:7c:68:d0:10:22:d2:f1:50:cf:
         45:b6:90:a9:99:bc:de:70:50:a2:d3:b8:6a:e9:79:da:75:7b:
         d6:5d:97:71:f2:87:b4:ec:29:de:b3:0e:de:a4:27:61:6e:7f:
         19:7b:54:11:dd:b3:1e:b5:3b:fe:61:c3:a8:a9:e3:2c:41:4c:
         58:3d:fd:71:6a:50:16:48:e7:61:2f:78:af:1c:3b:4f:60:b5:
         8b:97:2e:41:aa:b0:ce:e2:4e:f0:f4:2b:b8:e6:dc:75:54:fc:
         2a:21:b4:20:4f:03:b3:33:71:a2:44:c6:3c:cb:78:cf:bc:8b:
         7d:bf:dc:f2:59:7a:bd:4b:4d:98:26:67:86:81:63:9d:75:54:
         2c:84:ef:b5:b9:cf:06:3f:10:d7:0d:15:ba:c5:78:15:be:51:
         c2:de:bd:d4:9c:72:93:6e:60:7a:85:34:37:48:81:3f:7e:2c:
         5d:de:3e:43:55:d7:86:28:5e:13:30:44:d4:0f:31:89:a4:25:
         ac:bd:4a:9c:00:2b:83:1d:da:ed:3a:b2:4e:60:bd:9d:16:66:
         5e:eb:61:28:ea:1e:df:99
-----BEGIN CERTIFICATE-----
MIIGTTCCBDWgAwIBAgIBATANBgkqhkiG9w0BAQsFADCBnTELMAkGA1UEBhMCVVMx
ETAPBgNVBAgMCE1hcnlsYW5kMRIwEAYDVQQHDAlCYWx0aW1vcmUxFjAUBgNVBAoM
DUh1YiBTZXJ2ZXIgQ0ExETAPBgNVBAsMCFBheW1lbnRzMRQwEgYDVQQDDAtodWJz
ZXJ2ZXJjYTEmMCQGCSqGSIb3DQEJARYXaHVic2VydmVyY2FAZXhhbXBsZS5jb20w
HhcNMjExMDA4MDYwMzE1WhcNMjQwNzA0MDYwMzE1WjAjMSEwHwYDVQQDDBhtb2ph
bG9vcC10ZXN0aW5nLXRvb2xraXQwggIiMA0GCSqGSIb3DQEBAQUAA4ICDwAwggIK
AoICAQDfWfR5ZRg5Hg17fSybBXJEn92Z8LUPDTZvl950SH2illh95IuEvJziR9k5
Fs8wa62t3fAkdHIxR7iGzzRj9GAVCDLzyrx+qn1g3oW1TR7lvURxl2xbzOZU7UEV
1mwqqRgfGvVAcTAR21+GfWaqHJhBsdvF/tNzavULCRFs28//zJQCuG2TNhpyBkqk
binNrLJRG6DbLA0vwOD8rH0kHW1kOq2xUfs55VgONOG1t+lLfp3QzvimEnulYf26
iO/6Z9vV32rWSzphKr6qezOIBjtnYjNYLVlcADA+nNnuGM1CR1qvpKWJVxvUF3By
yWpiGfN5xK1mh4OrnmiSSqOc1HFeyqPjvpa0Hlua6NGq0DdippmEirHpM/C/qXBR
USNmzcjwcHnBNLV+wlMtObVycg3xCZcrOu+2v20XFg6uM3ekJrFA6wJVlTq+jwv4
J5M+5nLwVYbtr2BoWa2uLVSWV1T5kAhoB1N3FAwGEZvad2RNv/Wz9svie318N+Yq
Sv16myIhZQ18ablZDhrhp20E2ERylipCBDXn2pw+KKpdJFSyHRCJbHqURSE8mb2V
SnOa/AGFox7ZG/C/Ez3lBN0muhh64/ttfYJLgiOQhMNb1ovrWO08ol71E8ttceKi
syBXJxZwtQH3aYaNwGdzR7H0fczOsB3XU87S5Wv6sIqJrkLkfwIDAQABo4IBDzCC
AQswHQYDVR0OBBYEFK74FFzxmgzu21XVqrXPF/C+P2FfMB8GA1UdIwQYMBaAFAyt
ZPpEnObNG2vTWwnxn8DBjkwcMAkGA1UdEwQCMAAwCwYDVR0PBAQDAgWgMDEGA1Ud
JQQqMCgGCCsGAQUFBwMBBggrBgEFBQcDAgYIKwYBBQUHAwMGCCsGAQUFBwMEMFAG
A1UdEQRJMEeCGG1vamFsb29wLXRlc3RpbmctdG9vbGtpdIIJbG9jYWxob3N0gghr
ZXljbG9ha4IWY29ubmVjdGlvbi1tYW5hZ2VyLWFwaTAsBglghkgBhvhCAQ0EHxYd
T3BlblNTTCBHZW5lcmF0ZWQgQ2VydGlmaWNhdGUwDQYJKoZIhvcNAQELBQADggIB
AGBqrVDTVKfhX4L2xbEZZR8rsAtigCIvwhn31SQru7PqBn6+NwTPnptKK4QPoGkv
3L0MQ+k9s72ZPK4RYEttdlmayoTcgA/En9cemQ75zFsNGhOje1jntNAR27erbs25
oPH/GUCtfhrk08BjK6L3hKD442bSL6nAFqR9E3j/DwAFDs5gjGq8JZbST0F5YMxg
nIfB5aZN9tvjuWjz0ucISAhsX96ghGqdLMF+Whqbwv/LPxuXu5aGBpI4CtrIbCg/
MOKgQrS7vxmAGt8zm9AciQPift2tuWOVfwqw/fMSqt7obe+lWwr8dVs60W/zX0Lv
3Qr5kHGSLAtiFUGLkR/6gH3wNlS7pZS7UBNyzgX8U6puF0KQBAmrcgPrBQqaYTD7
VAlnj1RFAXs0B3xo0BAi0vFQz0W2kKmZvN5wUKLTuGrpedp1e9Zdl3Hyh7TsKd6z
Dt6kJ2Fufxl7VBHdsx61O/5hw6ip4yxBTFg9/XFqUBZI52EveK8cO09gtYuXLkGq
sM7iTvD0K7jm3HVU/CohtCBPA7MzcaJExjzLeM+8i32/3PJZer1LTZgmZ4aBY511
VCyE77W5zwY/ENcNFbrFeBW+UcLevdSccpNuYHqFNDdIgT9+LF3ePkNV14YoXhMw
RNQPMYmkJay9SpwAK4Md2u06sk5gvZ0WZl7rYSjqHt+Z
-----END CERTIFICATE-----
